target datalayout = "e-m:e-p270:32:32-p271:32:32-p272:64:64-i64:64-i128:128-f80:128-n8:16:32:64-S128"
target triple = "x86_64-unknown-linux-gnu"

%"class.absl::lts_20230802::log_internal::Voidify" = type { i8 }
%"class.absl::lts_20230802::log_internal::LogMessageFatal" = type { %"class.absl::lts_20230802::log_internal::LogMessage" }
%"class.absl::lts_20230802::log_internal::LogMessage" = type { %"class.absl::lts_20230802::base_internal::ErrnoSaver", %"class.std::unique_ptr.2" }
%"class.absl::lts_20230802::base_internal::ErrnoSaver" = type { i32 }
%"class.std::unique_ptr.2" = type { %"struct.std::__uniq_ptr_data.3" }
%"struct.std::__uniq_ptr_data.3" = type { %"class.std::__uniq_ptr_impl.4" }
%"class.std::__uniq_ptr_impl.4" = type { %"class.std::tuple.5" }
%"class.std::tuple.5" = type { %"struct.std::_Tuple_impl.6" }
%"struct.std::_Tuple_impl.6" = type { %"struct.std::_Head_base.9" }
%"struct.std::_Head_base.9" = type { ptr }
%"class.std::basic_string_view" = type { i64, ptr }
%"class.google::protobuf::io::FileOutputStream::CopyingFileOutputStream" = type <{ %"class.google::protobuf::io::CopyingOutputStream", i32, i8, i8, [2 x i8], i32, [4 x i8] }>
%"class.google::protobuf::io::CopyingOutputStream" = type { ptr }

@.str = private unnamed_addr constant [143 x i8] c"generated/home/dtcxzyw/WorkSpace/Projects/compilers/llvm-opt-benchmark/bench/protobuf/protobuf/src/google/protobuf/io/zero_copy_stream_impl.cc\00", align 1
@.str.2 = private unnamed_addr constant [12 x i8] c"!is_closed_\00", align 1

; Function Attrs: noreturn nounwind uwtable
define linkonce_odr hidden void @__clang_call_terminate(ptr noundef %0) #6 comdat {
  %2 = call ptr @__cxa_begin_catch(ptr %0) #3
  call void @_ZSt9terminatev() #14
  unreachable
}

; Function Attrs: mustprogress nounwind uwtable
define linkonce_odr hidden noundef i64 @_ZNSt11char_traitsIcE6lengthEPKc(ptr noundef %__s) #5 comdat align 2 {
entry:
  %__s.addr = alloca ptr, align 8
  store ptr %__s, ptr %__s.addr, align 8
  %0 = load ptr, ptr %__s.addr, align 8
  %call = call i64 @strlen(ptr noundef %0) #3
  ret i64 %call
}

; Function Attrs: mustprogress uwtable
define internal noundef i32 @_ZN6google8protobuf2io12_GLOBAL__N_114close_no_eintrEi(i32 noundef %fd) #4 {
entry:
  %fd.addr = alloca i32, align 4
  %result = alloca i32, align 4
  store i32 %fd, ptr %fd.addr, align 4
  br label %do.body

do.body:                                          ; preds = %land.end, %entry
  %0 = load i32, ptr %fd.addr, align 4
  %call = call i32 @close(i32 noundef %0)
  store i32 %call, ptr %result, align 4
  br label %do.cond

do.cond:                                          ; preds = %do.body
  %1 = load i32, ptr %result, align 4
  %cmp = icmp slt i32 %1, 0
  br i1 %cmp, label %land.rhs, label %land.end

land.rhs:                                         ; preds = %do.cond
  %call1 = call ptr @__errno_location() #15
  %2 = load i32, ptr %call1, align 4
  %cmp2 = icmp eq i32 %2, 4
  br label %land.end

land.end:                                         ; preds = %land.rhs, %do.cond
  %3 = phi i1 [ false, %do.cond ], [ %cmp2, %land.rhs ]
  br i1 %3, label %do.body, label %do.end, !llvm.loop !4

do.end:                                           ; preds = %land.end
  %4 = load i32, ptr %result, align 4
  ret i32 %4
}

; Function Attrs: mustprogress nounwind uwtable
define linkonce_odr hidden void @_ZNKO4absl12lts_2023080212log_internal7VoidifyaaINS1_10LogMessageEEEvRKT_(ptr noundef nonnull align 1 dereferenceable(1) %this, ptr noundef nonnull align 8 dereferenceable(16) %0) #5 comdat align 2 {
entry:
  %this.addr = alloca ptr, align 8
  %.addr = alloca ptr, align 8
  store ptr %this, ptr %this.addr, align 8
  store ptr %0, ptr %.addr, align 8
  ret void
}

; Function Attrs: mustprogress nounwind uwtable
define linkonce_odr hidden noundef nonnull align 8 dereferenceable(16) ptr @_ZN4absl12lts_2023080212log_internal10LogMessage14InternalStreamEv(ptr noundef nonnull align 8 dereferenceable(16) %this) #5 comdat align 2 {
entry:
  %this.addr = alloca ptr, align 8
  store ptr %this, ptr %this.addr, align 8
  %this1 = load ptr, ptr %this.addr, align 8
  ret ptr %this1
}

; Function Attrs: mustprogress nounwind uwtable
define linkonce_odr hidden void @_ZNSt17basic_string_viewIcSt11char_traitsIcEEC2EPKc(ptr noundef nonnull align 8 dereferenceable(16) %this, ptr noundef nonnull %__str) unnamed_addr #5 comdat align 2 personality ptr @__gxx_personality_v0 {
entry:
  %this.addr = alloca ptr, align 8
  %__str.addr = alloca ptr, align 8
  store ptr %this, ptr %this.addr, align 8
  store ptr %__str, ptr %__str.addr, align 8
  %this1 = load ptr, ptr %this.addr, align 8
  %_M_len = getelementptr inbounds %"class.std::basic_string_view", ptr %this1, i32 0, i32 0
  %0 = load ptr, ptr %__str.addr, align 8
  %call = invoke noundef i64 @_ZNSt11char_traitsIcE6lengthEPKc(ptr noundef %0)
          to label %invoke.cont unwind label %terminate.lpad

invoke.cont:                                      ; preds = %entry
  store i64 %call, ptr %_M_len, align 8
  %_M_str = getelementptr inbounds %"class.std::basic_string_view", ptr %this1, i32 0, i32 1
  %1 = load ptr, ptr %__str.addr, align 8
  store ptr %1, ptr %_M_str, align 8
  ret void

terminate.lpad:                                   ; preds = %entry
  %2 = landingpad { ptr, i32 }
          catch ptr null
  %3 = extractvalue { ptr, i32 } %2, 0
  call void @__clang_call_terminate(ptr %3) #14
  unreachable
}

; Function Attrs: mustprogress uwtable
define noundef zeroext i1 @_ZN6google8protobuf2io16FileOutputStream23CopyingFileOutputStream5CloseEv(ptr noundef nonnull align 8 dereferenceable(24) %this) #4 align 2 personality ptr @__gxx_personality_v0 {
entry:
  %retval = alloca i1, align 1
  %this.addr = alloca ptr, align 8
  %ref.tmp = alloca %"class.absl::lts_20230802::log_internal::Voidify", align 1
  %ref.tmp3 = alloca %"class.absl::lts_20230802::log_internal::LogMessageFatal", align 8
  %agg.tmp = alloca %"class.std::basic_string_view", align 8
  %cleanup.cond = alloca i1, align 1
  %exn.slot = alloca ptr, align 8
  %ehselector.slot = alloca i32, align 4
  store ptr %this, ptr %this.addr, align 8
  %this1 = load ptr, ptr %this.addr, align 8
  %is_closed_ = getelementptr inbounds %"class.google::protobuf::io::FileOutputStream::CopyingFileOutputStream", ptr %this1, i32 0, i32 3
  %0 = load i8, ptr %is_closed_, align 1
  %tobool = trunc i8 %0 to i1
  %lnot = xor i1 %tobool, true
  %lnot2 = xor i1 %lnot, true
  store i1 false, ptr %cleanup.cond, align 1
  br i1 %lnot2, label %cond.false, label %cond.true

cond.true:                                        ; preds = %entry
  br label %cond.end

cond.false:                                       ; preds = %entry
  call void @_ZNSt17basic_string_viewIcSt11char_traitsIcEEC2EPKc(ptr noundef nonnull align 8 dereferenceable(16) %agg.tmp, ptr noundef @.str.2) #3
  %1 = getelementptr inbounds { i64, ptr }, ptr %agg.tmp, i32 0, i32 0
  %2 = load i64, ptr %1, align 8
  %3 = getelementptr inbounds { i64, ptr }, ptr %agg.tmp, i32 0, i32 1
  %4 = load ptr, ptr %3, align 8
  call void @_ZN4absl12lts_2023080212log_internal15LogMessageFatalC1EPKciSt17basic_string_viewIcSt11char_traitsIcEE(ptr noundef nonnull align 8 dereferenceable(16) %ref.tmp3, ptr noundef @.str, i32 noundef 177, i64 %2, ptr %4) #13
  store i1 true, ptr %cleanup.cond, align 1
  %call = invoke noundef nonnull align 8 dereferenceable(16) ptr @_ZN4absl12lts_2023080212log_internal10LogMessage14InternalStreamEv(ptr noundef nonnull align 8 dereferenceable(16) %ref.tmp3)
          to label %invoke.cont unwind label %lpad

invoke.cont:                                      ; preds = %cond.false
  invoke void @_ZNKO4absl12lts_2023080212log_internal7VoidifyaaINS1_10LogMessageEEEvRKT_(ptr noundef nonnull align 1 dereferenceable(1) %ref.tmp, ptr noundef nonnull align 8 dereferenceable(16) %call)
          to label %invoke.cont4 unwind label %lpad

invoke.cont4:                                     ; preds = %invoke.cont
  br label %cond.end

cond.end:                                         ; preds = %invoke.cont4, %cond.true
  %cleanup.is_active = load i1, ptr %cleanup.cond, align 1
  br i1 %cleanup.is_active, label %cleanup.action, label %cleanup.done

cleanup.action:                                   ; preds = %cond.end
  call void @_ZN4absl12lts_2023080212log_internal15LogMessageFatalD1Ev(ptr noundef nonnull align 8 dereferenceable(16) %ref.tmp3) #14
  unreachable

lpad:                                             ; preds = %invoke.cont, %cond.false
  %5 = landingpad { ptr, i32 }
          cleanup
  %6 = extractvalue { ptr, i32 } %5, 0
  store ptr %6, ptr %exn.slot, align 8
  %7 = extractvalue { ptr, i32 } %5, 1
  store i32 %7, ptr %ehselector.slot, align 4
  %cleanup.is_active5 = load i1, ptr %cleanup.cond, align 1
  br i1 %cleanup.is_active5, label %cleanup.action6, label %cleanup.done7

8:                                                ; No predecessors!
  br label %cleanup.done

cleanup.done:                                     ; preds = %8, %cond.end
  %is_closed_8 = getelementptr inbounds %"class.google::protobuf::io::FileOutputStream::CopyingFileOutputStream", ptr %this1, i32 0, i32 3
  store i8 1, ptr %is_closed_8, align 1
  %file_ = getelementptr inbounds %"class.google::protobuf::io::FileOutputStream::CopyingFileOutputStream", ptr %this1, i32 0, i32 1
  %9 = load i32, ptr %file_, align 8
  %call9 = call noundef i32 @_ZN6google8protobuf2io12_GLOBAL__N_114close_no_eintrEi(i32 noundef %9)
  %cmp = icmp ne i32 %call9, 0
  br i1 %cmp, label %if.then, label %if.end

if.then:                                          ; preds = %cleanup.done
  %call10 = call ptr @__errno_location() #15
  %10 = load i32, ptr %call10, align 4
  %errno_ = getelementptr inbounds %"class.google::protobuf::io::FileOutputStream::CopyingFileOutputStream", ptr %this1, i32 0, i32 5
  store i32 %10, ptr %errno_, align 8
  store i1 false, ptr %retval, align 1
  br label %return

cleanup.action6:                                  ; preds = %lpad
  call void @_ZN4absl12lts_2023080212log_internal15LogMessageFatalD1Ev(ptr noundef nonnull align 8 dereferenceable(16) %ref.tmp3) #14
  unreachable

11:                                               ; No predecessors!
  br label %cleanup.done7

cleanup.done7:                                    ; preds = %11, %lpad
  br label %eh.resume

if.end:                                           ; preds = %cleanup.done
  store i1 true, ptr %retval, align 1
  br label %return

return:                                           ; preds = %if.end, %if.then
  %12 = load i1, ptr %retval, align 1
  ret i1 %12

eh.resume:                                        ; preds = %cleanup.done7
  %exn = load ptr, ptr %exn.slot, align 8
  %sel = load i32, ptr %ehselector.slot, align 4
  %lpad.val = insertvalue { ptr, i32 } poison, ptr %exn, 0
  %lpad.val11 = insertvalue { ptr, i32 } %lpad.val, i32 %sel, 1
  resume { ptr, i32 } %lpad.val11
}