; Function Attrs: mustprogress uwtable
define noundef zeroext i1 @_ZN6google8protobuf2io16FileOutputStream23CopyingFileOutputStream5CloseEv(ptr nocapture noundef nonnull align 8 dereferenceable(24) %this) local_unnamed_addr #3 align 2 personality ptr @__gxx_personality_v0 {
entry:
  %ref.tmp3 = alloca %"class.absl::lts_20230802::log_internal::LogMessageFatal", align 8
  %is_closed_ = getelementptr inbounds i8, ptr %this, i64 13
  %0 = load i8, ptr %is_closed_, align 1
  %1 = and i8 %0, 1
  %tobool.not.not = icmp eq i8 %1, 0
  br i1 %tobool.not.not, label %cleanup.done, label %cond.false

cond.false:                                       ; preds = %entry
  call void @_ZN4absl12lts_2023080212log_internal15LogMessageFatalC1EPKciSt17basic_string_viewIcSt11char_traitsIcEE(ptr noundef nonnull align 8 dereferenceable(16) %ref.tmp3, ptr noundef nonnull @.str, i32 noundef 177, i64 11, ptr nonnull @.str.2) #17
  call void @_ZN4absl12lts_2023080212log_internal15LogMessageFatalD1Ev(ptr noundef nonnull align 8 dereferenceable(16) %ref.tmp3) #18
  unreachable

cleanup.done:                                     ; preds = %entry
  store i8 1, ptr %is_closed_, align 1
  %file_ = getelementptr inbounds i8, ptr %this, i64 8
  %2 = load i32, ptr %file_, align 8
  br label %do.body.i

do.body.i:                                        ; preds = %land.rhs.i, %cleanup.done
  %call.i = tail call i32 @close(i32 noundef %2)
  %cmp.i = icmp slt i32 %call.i, 0
  br i1 %cmp.i, label %land.rhs.i, label %_ZN6google8protobuf2io12_GLOBAL__N_114close_no_eintrEi.exit

land.rhs.i:                                       ; preds = %do.body.i
  %call1.i = tail call ptr @__errno_location() #19
  %3 = load i32, ptr %call1.i, align 4
  %cmp2.i = icmp eq i32 %3, 4
  br i1 %cmp2.i, label %do.body.i, label %if.then, !llvm.loop !4

_ZN6google8protobuf2io12_GLOBAL__N_114close_no_eintrEi.exit: ; preds = %do.body.i
  %cmp.not = icmp eq i32 %call.i, 0
  br i1 %cmp.not, label %return, label %_ZN6google8protobuf2io12_GLOBAL__N_114close_no_eintrEi.exit.if.then_crit_edge

_ZN6google8protobuf2io12_GLOBAL__N_114close_no_eintrEi.exit.if.then_crit_edge: ; preds = %_ZN6google8protobuf2io12_GLOBAL__N_114close_no_eintrEi.exit
  %.pre = tail call ptr @__errno_location() #19
  br label %if.then

if.then:                                          ; preds = %land.rhs.i, %_ZN6google8protobuf2io12_GLOBAL__N_114close_no_eintrEi.exit.if.then_crit_edge
  %call10.pre-phi = phi ptr [ %.pre, %_ZN6google8protobuf2io12_GLOBAL__N_114close_no_eintrEi.exit.if.then_crit_edge ], [ %call1.i, %land.rhs.i ]
  %4 = load i32, ptr %call10.pre-phi, align 4
  %errno_ = getelementptr inbounds i8, ptr %this, i64 16
  store i32 %4, ptr %errno_, align 8
  br label %return

return:                                           ; preds = %_ZN6google8protobuf2io12_GLOBAL__N_114close_no_eintrEi.exit, %if.then
  %cmp.not3 = phi i1 [ true, %_ZN6google8protobuf2io12_GLOBAL__N_114close_no_eintrEi.exit ], [ false, %if.then ]
  ret i1 %cmp.not3
}